ccollections
Counter
p0
((dp1
S'VolleyballLeague'
p2
I133
sS'HorseRider'
p3
I650
sS'Gymnast'
p4
I4916
sS'Eukaryote'
p5
I1191
sS'ChemicalElement'
p6
I1
sS'LacrosseLeague'
p7
I55
sS'Station'
p8
I35652
sS'Olympics'
p9
I58
sS'Saint'
p10
I3972
sS'SnookerPlayer'
p11
I435
sS'CurlingLeague'
p12
I3
sS'ChemicalCompound'
p13
I10155
sS'SoccerClubSeason'
p14
I9786
sS'TelevisionSeason'
p15
I3875
sS'Dam'
p16
I3397
sS'AnimangaCharacter'
p17
I226
sS'Award'
p18
I5549
sS'Lymph'
p19
I77
sS'Airline'
p20
I3927
sS'TennisTournament'
p21
I1131
sS'Earthquake'
p22
I829
sS'AmusementParkAttraction'
p23
I562
sS'PoliticalParty'
p24
I7706
sS'MouseGene'
p25
I2
sS'AutomobileEngine'
p26
I15799
sS'ComedyGroup'
p27
I75
sS'Magazine'
p28
I5248
sS'MountainPass'
p29
I1093
sS'BaseballLeague'
p30
I335
sS'IceHockeyLeague'
p31
I304
sS'River'
p32
I28445
sS'RacingDriver'
p33
I2590
sS'TableTennisPlayer'
p34
I524
sS'Ambassador'
p35
I639
sS'Rocket'
p36
I282
sS'MotorsportSeason'
p37
I15938
sS'CricketGround'
p38
I260
sS'NetballPlayer'
p39
I261
sS'Motorcycle'
p40
I1077
sS'SpeedwayRider'
p41
I704
sS'Protein'
p42
I2747
sS'HumanGeneLocation'
p43
I2
sS'ClassicalMusicComposition'
p44
I685
sS'Rower'
p45
I279
sS'ClassicalMusicArtist'
p46
I322
sS'Glacier'
p47
I703
sS'HandballPlayer'
p48
I2267
sS'Hospital'
p49
I3200
sS'SoccerPlayer'
p50
I117619
sS'MartialArtist'
p51
I3470
sS'Library'
p52
I1060
sS'ReligiousBuilding'
p53
I4629
sS'Monarch'
p54
I2554
sS'GaelicGamesPlayer'
p55
I3638
sS'Embryology'
p56
I185
sS'ConcentrationCamp'
p57
I80
sS'Skater'
p58
I543
sS'SoapCharacter'
p59
I2671
sS'VolleyballCoach'
p60
I76
sS'Theatre'
p61
I808
sS'Song'
p62
I7134
sS'Train'
p63
I1592
sS'Park'
p64
I3977
sS'Game'
p65
I1556
sS'BodyOfWater'
p66
I1301
sS'CyclingRace'
p67
I912
sS'MotorcycleRacingLeague'
p68
I19
sS'Thing'
p69
I307163
sS'FigureSkater'
p70
I3224
sS'University'
p71
I20349
sS'Non-ProfitOrganisation'
p72
I1915
sS'Publisher'
p73
I1489
sS'Politician'
p74
I20823
sS'Mineral'
p75
I1431
sS'Tunnel'
p76
I91
sS'ArchitecturalStructure'
p77
I348
sS'Crustacean'
p78
I2798
sS'SkiArea'
p79
I668
sS'GridironFootballPlayer'
p80
I6647
sS'BasketballPlayer'
p81
I12069
sS'FieldHockeyLeague'
p82
I28
sS'AmericanFootballLeague'
p83
I100
sS'Stream'
p84
I47
sS'AmateurBoxer'
p85
I448
sS'MusicFestival'
p86
I440
sS'RailwayLine'
p87
I4223
sS'Fish'
p88
I18752
sS'CanadianFootballTeam'
p89
I217
sS'GolfLeague'
p90
I20
sS'TelevisionHost'
p91
I55
sS'ChristianBishop'
p92
I9261
sS'ComicStrip'
p93
I390
sS'Amphibian'
p94
I3587
sS'MemberOfParliament'
p95
I7708
sS'Religious'
p96
I1031
sS'Continent'
p97
I18
sS'ComicsCreator'
p98
I2855
sS'Canal'
p99
I422
sS'Mountain'
p100
I17560
sS'FormulaOneRacer'
p101
I791
sS'HistoricBuilding'
p102
I9583
sS'City'
p103
I20839
sS'SpeedwayTeam'
p104
I112
sS'WorldHeritageSite'
p105
I941
sS'FictionalCharacter'
p106
I4651
sS'Book'
p107
I36851
sS'Cardinal'
p108
I776
sS'Animal'
p109
I7089
sS'Journalist'
p110
I1728
sS'GivenName'
p111
I3789
sS'TennisPlayer'
p112
I5247
sS'Skier'
p113
I2673
sS'Cleric'
p114
I2665
sS'Star'
p115
I2932
sS'SoccerLeague'
p116
I2039
sS'ProgrammingLanguage'
p117
I1075
sS'BaseballTeam'
p118
I35
sS'Fungus'
p119
I11096
sS'WrestlingEvent'
p120
I1238
sS'Royalty'
p121
I10699
sS'Moss'
p122
I466
sS'FilmFestival'
p123
I963
sS'Novel'
p124
I27
sS'ProtectedArea'
p125
I9289
sS'BeautyQueen'
p126
I2448
sS'Weapon'
p127
I5781
sS'Mollusca'
p128
I27691
sS'SpeedwayLeague'
p129
I18
sS'Presenter'
p130
I116
sS'MixedMartialArtsLeague'
p131
I1
sS'Beverage'
p132
I939
sS'RollerCoaster'
p133
I753
sS'OfficeHolder'
p134
I69360
sS'EthnicGroup'
p135
I5391
sS'GolfTournament'
p136
I1870
sS'FloweringPlant'
p137
I114
sS'EurovisionSongContestEntry'
p138
I1140
sS'Software'
p139
I12081
sS'Cheese'
p140
I309
sS'Pope'
p141
I389
sS'Diocese'
p142
I3286
sS'VolleyballPlayer'
p143
I6282
sS'Sales'
p144
I26472
sS'RailwayTunnel'
p145
I177
sS'Fern'
p146
I965
sS'Spacecraft'
p147
I5
sS'GreenAlga'
p148
I390
sS'College'
p149
I89
sS'Year'
p150
I2049
sS'Constellation'
p151
I88
sS'Album'
p152
I139078
sS'Poem'
p153
I383
sS'Lighthouse'
p154
I2132
sS'Museum'
p155
I5686
sS'Photographer'
p156
I458
sS'Prison'
p157
I1385
sS'BiologicalDatabase'
p158
I363
sS'WomensTennisAssociationTournament'
p159
I544
sS'AdultActor'
p160
I1319
sS'Enzyme'
p161
I5010
sS'BeachVolleyballPlayer'
p162
I216
sS'Astronaut'
p163
I635
sS'Convention'
p164
I2268
sS'Poet'
p165
I307
sS'AdministrativeRegion'
p166
I21731
sS'Brewery'
p167
I280
sS'NationalFootballLeagueSeason'
p168
I3388
sS'Noble'
p169
I5308
sS'Plant'
p170
I52839
sS'Cricketer'
p171
I19489
sS'CricketTeam'
p172
I727
sS'ScreenWriter'
p173
I727
sS'Building'
p174
I49989
sS'President'
p175
I2200
sS'MusicalWork'
p176
I282
sS'AustralianFootballLeague'
p177
I5
sS'Colour'
p178
I902
sS'AmericanFootballTeam'
p179
I36
sS'ComicsCharacter'
p180
I4374
sS'Brain'
p181
I554
sS'ArtificialSatellite'
p182
I2477
sS'WrittenWork'
p183
I1538
sS'FashionDesigner'
p184
I769
sS'Disease'
p185
I6108
sS'Airport'
p186
I14813
sS'Winery'
p187
I338
sS'Activity'
p188
I26472
sS'MusicGenre'
p189
I1250
sS'HandballLeague'
p190
I39
sS'Model'
p191
I1728
sS'Bay'
p192
I9
sS'SupremeCourtOfTheUnitedStatesCase'
p193
I2813
sS'Comic'
p194
I2296
sS'Medician'
p195
I496
sS'Garden'
p196
I358
sS'Reptile'
p197
I5545
sS'Canoeist'
p198
I458
sS'SoccerClub'
p199
I21955
sS'TradeUnion'
p200
I1704
sS'RoadJunction'
p201
I194
sS'Arachnid'
p202
I4152
sS'MilitaryStructure'
p203
I4507
sS'Ship'
p204
I30283
sS'Film'
p205
I111938
sS'GovernmentAgency'
p206
I5803
sS'HollywoodCartoon'
p207
I1677
sS'Cave'
p208
I525
sS'VideoGame'
p209
I20750
sS'SnookerWorldRanking'
p210
I34
sS'Newspaper'
p211
I6889
sS'WaterwayTunnel'
p212
I24
sS'Entomologist'
p213
I423
sS'Grape'
p214
I385
sS'Manga'
p215
I3671
sS'FootballLeagueSeason'
p216
I9562
sS'CyclingTeam'
p217
I482
sS'Bird'
p218
I12941
sS'Muscle'
p219
I284
sS'Band'
p220
I34594
sS'RailwayStation'
p221
I2311
sS'Company'
p222
I55524
sS'YearInSpaceflight'
p223
I60
sS'SpaceStation'
p224
I32
sS'OlympicEvent'
p225
I4498
sS'CollegeCoach'
p226
I7145
sS'CricketLeague'
p227
I10
sS'Judge'
p228
I3081
sS'TimePeriod'
p229
I148574
sS'LawFirm'
p230
I512
sS'Vein'
p231
I230
sS'Sound'
p232
I10943
sS'ArtistDiscography'
p233
I4146
sS'SpaceShuttle'
p234
I18
sS'Restaurant'
p235
I1212
sS'Island'
p236
I6277
sS'Athlete'
p237
I40730
sS'EducationalInstitution'
p238
I513
sS'Venue'
p239
I6174
sS'Drug'
p240
I6446
sS'MilitaryUnit'
p241
I18626
sS'LacrossePlayer'
p242
I432
sS'RoadTunnel'
p243
I309
sS'Architect'
p244
I2882
sS'PoloLeague'
p245
I32
sS'Volcano'
p246
I785
sS'RugbyPlayer'
p247
I16327
sS'Fashion'
p248
I459
sS'Curler'
p249
I771
sS'TelevisionStation'
p250
I8547
sS'NationalFootballLeagueEvent'
p251
I9
sS'TennisLeague'
p252
I19
sS'SoccerManager'
p253
I18622
sS'Sport'
p254
I259
sS'BaseballPlayer'
p255
I22016
sS'OlympicResult'
p256
I788
sS'Cyclist'
p257
I11418
sS'SportsSeason'
p258
I12882
sS'WaterRide'
p259
I79
sS'Organisation'
p260
I18230
sS'Guitarist'
p261
I147
sS'Anime'
p262
I4099
sS'Actor'
p263
I4814
sS'MilitaryPerson'
p264
I30032
sS'SoftballLeague'
p265
I28
sS'Criminal'
p266
I2477
sS'GolfCourse'
p267
I370
sS'Engine'
p268
I8895
sS'Holiday'
p269
I1138
sS'Chancellor'
p270
I81
sS'BaseballSeason'
p271
I263
sS'BroadcastNetwork'
p272
I1318
sS'HockeyTeam'
p273
I2475
sS'Person'
p274
I185994
sS'MusicalArtist'
p275
I52413
sS'Country'
p276
I3424
sS'BasketballLeague'
p277
I555
sS'Ligament'
p278
I183
sS'Town'
p279
I42776
sS'School'
p280
I33291
sS'RaceHorse'
p281
I4050
sS'BasketballTeam'
p282
I1822
sS'GrandPrix'
p283
I1373
sS'Play'
p284
I2131
sS'MouseGeneLocation'
p285
I2
sS'Planet'
p286
I3753
sS'NationalCollegiateAthleticAssociationAthlete'
p287
I193
sS'Place'
p288
I7354
sS'VideogamesLeague'
p289
I3
sS'Wrestler'
p290
I3659
sS'Senator'
p291
I816
sS'NCAATeamSeason'
p292
I16795
sS'CareerStation'
p293
I977023
sS'Nerve'
p294
I327
sS'VoiceActor'
p295
I543
sS'LaunchPad'
p296
I91
sS'RadioHost'
p297
I357
sS'Murderer'
p298
I99
sS'AutoRacingLeague'
p299
I6
sS'HorseTrainer'
p300
I243
sS'ChessPlayer'
p301
I1450
sS'Event'
p302
I19418
sS'Species'
p303
I6217
sS'PowerStation'
p304
I5227
sS'Currency'
p305
I391
sS'Scientist'
p306
I24120
sS'Comedian'
p307
I1358
sS'BoxingLeague'
p308
I1
sS'BowlingLeague'
p309
I1
sS'Economist'
p310
I1180
sS'Mayor'
p311
I1924
sS'HumanGene'
p312
I2
sS'RadioProgram'
p313
I1285
sS'AustralianRulesFootballPlayer'
p314
I12841
sS'Swimmer'
p315
I6000
sS'MotorcycleRider'
p316
I1264
sS'Gnetophytes'
p317
I36
sS'Historian'
p318
I749
sS'MixedMartialArtsEvent'
p319
I1020
sS'Skyscraper'
p320
I5
sS'Stadium'
p321
I6335
sS'Congressman'
p322
I3298
sS'SportsTeamMember'
p323
I318392
sS'AnatomicalStructure'
p324
I1807
sS'Baronet'
p325
I806
sS'ResearchProject'
p326
I11
sS'Website'
p327
I3936
sS'CanadianFootballLeague'
p328
I7
sS'Hotel'
p329
I1321
sS'Insect'
p330
I133586
sS'AustralianFootballTeam'
p331
I462
sS'Musical'
p332
I1424
sS'Aircraft'
p333
I10757
sS'Boxer'
p334
I4033
sS'ClubMoss'
p335
I115
sS'Artwork'
p336
I5294
sS'Device'
p337
I10142
sS'SnookerChamp'
p338
I28
sS'Painter'
p339
I2495
sS'BadmintonPlayer'
p340
I1435
sS'Language'
p341
I8140
sS'TelevisionEpisode'
p342
I8934
sS'MythologicalFigure'
p343
I775
sS'BusinessPerson'
p344
I829
sS'Castle'
p345
I1465
sS'RugbyLeague'
p346
I574
sS'Road'
p347
I21544
sS'Surname'
p348
I556
sS'TelevisionShow'
p349
I39209
sS'ShoppingMall'
p350
I2668
sS'PersonFunction'
p351
I171413
sS'MountainRange'
p352
I2560
sS'FootballMatch'
p353
I3421
sS'SoccerTournament'
p354
I7287
sS'Sea'
p355
I57
sS'RugbyClub'
p356
I2331
sS'Settlement'
p357
I246163
sS'BusCompany'
p358
I1493
sS'Galaxy'
p359
I906
sS'Engineer'
p360
I787
sS'Racecourse'
p361
I269
sS'MilitaryConflict'
p362
I14102
sS'SumoWrestler'
p363
I473
sS'Automobile'
p364
I9273
sS'PokerPlayer'
p365
I684
sS'Lake'
p366
I13172
sS'Philosopher'
p367
I1909
sS'Crater'
p368
I682
sS'Asteroid'
p369
I1619
sS'DartsPlayer'
p370
I584
sS'PlayboyPlaymate'
p371
I272
sS'SportsEvent'
p372
I1268
sS'PrimeMinister'
p373
I1432
sS'Valley'
p374
I134
sS'GolfPlayer'
p375
I3288
sS'FormulaOneTeam'
p376
I124
sS'SquashPlayer'
p377
I422
sS'SportsLeague'
p378
I394
sS'RecordLabel'
p379
I3582
sS'WineRegion'
p380
I401
sS'Food'
p381
I4808
sS'NascarDriver'
p382
I1009
sS'HandballTeam'
p383
I393
sS'Ginkgo'
p384
I7
sS'InformationAppliance'
p385
I1334
sS'Artery'
p386
I341
sS'IceHockeyPlayer'
p387
I15691
sS'Jockey'
p388
I555
sS'HistoricPlace'
p389
I25303
sS'Bank'
p390
I3063
sS'AcademicConference'
p391
I77
sS'Legislature'
p392
I1817
sS'CultivatedVariety'
p393
I1764
sS'Artist'
p394
I14991
sS'PublicTransitSystem'
p395
I1900
sS'Cycad'
p396
I227
sS'Conifer'
p397
I732
sS'SportsTeam'
p398
I2443
sS'Governor'
p399
I2734
sS'RadioStation'
p400
I20373
sS'HorseRace'
p401
I2444
sS'Bodybuilder'
p402
I276
sS'InlineHockeyLeague'
p403
I21
sS'Monument'
p404
I625
sS'Mammal'
p405
I8128
sS'Writer'
p406
I30310
sS'Locomotive'
p407
I3477
sS'Bone'
p408
I358
sS'Bridge'
p409
I4311
sS'Archaea'
p410
I251
sS'SiteOfSpecialScientificInterest'
p411
I1325
sS'SolarEclipse'
p412
I380
sS'AmericanFootballPlayer'
p413
I19924
sS'Chef'
p414
I584
sS'AcademicJournal'
p415
I6970
sS'Single'
p416
I51413
sS'Election'
p417
I10479
sS'Village'
p418
I169128
sS'Bacteria'
p419
I990
stp420
Rp421
.